Certificate:
    Data:
        Version: 3 (0x2)
        Serial Number:
            11:f0:c6:a4:3e:4d:30:32:32:44:65:a3:c3:98:70:81:ff:5f:a3:0c
        Signature Algorithm: sha256WithRSAEncryption
        Issuer: C = US, ST = OR, L = Bend, O = Teleport, CN = Teleport, emailAddress = teleporter@phatware.com
        Validity
            Not Before: Nov  8 01:03:48 2020 GMT
            Not After : Nov  8 01:03:48 2021 GMT
        Subject: C = US, ST = OR, L = Bend, O = Teleport, CN = Teleport, emailAddress = teleporter@phatware.com
        Subject Public Key Info:
            Public Key Algorithm: rsaEncryption
                RSA Public-Key: (2048 bit)
                Modulus:
                    00:bf:37:f6:86:ed:e3:57:14:58:41:24:b6:5d:d6:
                    c9:51:99:1f:ce:14:72:81:ac:5f:f4:85:22:41:db:
                    da:3b:81:4b:c6:64:e0:4c:ab:84:7f:dc:35:42:00:
                    34:53:ed:c1:ee:d9:e6:71:7a:a9:a1:10:13:37:2a:
                    91:73:fd:c8:22:e9:98:90:fc:b1:6c:b1:b3:03:40:
                    b9:af:60:1a:42:c4:6b:fb:f7:61:07:52:b0:d7:c1:
                    de:ea:32:4b:87:b7:8e:aa:20:3e:77:11:22:3b:cd:
                    1a:6f:a7:f1:80:4f:a4:6a:4a:cb:ff:ce:fe:ee:a6:
                    49:bc:91:ed:54:3b:9b:cb:3b:cc:ae:73:e1:b4:09:
                    0d:6b:cb:8b:00:77:66:92:e9:84:ae:a1:3f:7e:6a:
                    08:d1:45:30:7e:c8:c2:56:1a:1b:e6:cb:20:1d:49:
                    58:c6:92:be:eb:6a:8b:4b:77:e6:25:c1:1e:2f:71:
                    94:5f:ba:64:24:4d:1e:34:3c:8e:b1:78:28:eb:ea:
                    d3:85:75:51:a6:f5:43:ce:32:74:33:36:3d:cc:c4:
                    7f:3f:9f:e2:60:5b:7c:23:d1:3d:7d:48:76:ff:b7:
                    c5:87:81:b8:08:a4:e7:5e:37:4e:0c:05:0b:42:2f:
                    8f:43:c8:c6:87:2a:d5:a8:11:3d:b4:5d:27:a2:6e:
                    50:3b
                Exponent: 65537 (0x10001)
        X509v3 extensions:
            X509v3 Subject Key Identifier: 
                44:7B:CA:B8:C5:7F:BA:D7:84:6B:5F:3A:00:77:2E:F3:1A:2B:70:A4
            X509v3 Authority Key Identifier: 
                keyid:44:7B:CA:B8:C5:7F:BA:D7:84:6B:5F:3A:00:77:2E:F3:1A:2B:70:A4

            X509v3 Basic Constraints: critical
                CA:TRUE
    Signature Algorithm: sha256WithRSAEncryption
         17:10:d0:f1:b1:14:44:a4:a4:20:b0:e1:1d:42:4f:64:b4:bf:
         6c:2c:ee:6b:70:d0:b4:41:f4:3c:e0:fd:af:f4:90:e9:72:d4:
         9d:2c:be:82:d0:ba:c1:54:63:5f:3e:5b:96:93:a8:a7:2a:ef:
         c9:93:66:46:80:0b:a3:25:77:91:bd:7e:02:fb:c4:26:d0:8e:
         1a:80:70:12:41:ed:08:c4:13:97:f4:cd:44:ba:74:41:4b:6a:
         6d:df:46:1a:4f:27:d0:f5:b4:7c:01:61:d5:3b:2f:05:c0:de:
         23:40:40:89:0e:00:2a:af:d5:2e:7f:dd:c2:86:69:a0:a4:b6:
         45:51:48:a7:60:33:21:41:4b:ab:11:b2:2e:4f:55:b6:6b:d0:
         09:64:97:70:a0:fb:f0:8c:7b:04:b0:17:04:9c:71:ad:cc:4d:
         fa:13:7e:fe:0a:1c:d8:91:29:8d:b1:73:de:cf:f5:4b:70:5c:
         09:e0:36:a0:c8:40:0c:10:bb:a7:33:ac:3a:81:56:a8:bd:4c:
         ea:65:62:ef:e7:8c:1a:b8:2b:c2:f7:9b:a4:da:37:77:8b:cb:
         16:d5:44:ea:05:d6:98:c9:1c:69:62:3c:7b:dd:68:ef:9c:00:
         28:a2:8c:81:31:3f:48:1a:6b:7e:b4:0d:95:ea:8a:9d:b9:52:
         4e:03:18:17
-----BEGIN CERTIFICATE-----
MIIDzzCCAregAwIBAgIUEfDGpD5NMDIyRGWjw5hwgf9fowwwDQYJKoZIhvcNAQEL
BQAwdzELMAkGA1UEBhMCVVMxCzAJBgNVBAgMAk9SMQ0wCwYDVQQHDARCZW5kMREw
DwYDVQQKDAhUZWxlcG9ydDERMA8GA1UEAwwIVGVsZXBvcnQxJjAkBgkqhkiG9w0B
CQEWF3RlbGVwb3J0ZXJAcGhhdHdhcmUuY29tMB4XDTIwMTEwODAxMDM0OFoXDTIx
MTEwODAxMDM0OFowdzELMAkGA1UEBhMCVVMxCzAJBgNVBAgMAk9SMQ0wCwYDVQQH
DARCZW5kMREwDwYDVQQKDAhUZWxlcG9ydDERMA8GA1UEAwwIVGVsZXBvcnQxJjAk
BgkqhkiG9w0BCQEWF3RlbGVwb3J0ZXJAcGhhdHdhcmUuY29tMIIBIjANBgkqhkiG
9w0BAQEFAAOCAQ8AMIIBCgKCAQEAvzf2hu3jVxRYQSS2XdbJUZkfzhRygaxf9IUi
QdvaO4FLxmTgTKuEf9w1QgA0U+3B7tnmcXqpoRATNyqRc/3IIumYkPyxbLGzA0C5
r2AaQsRr+/dhB1Kw18He6jJLh7eOqiA+dxEiO80ab6fxgE+kakrL/87+7qZJvJHt
VDubyzvMrnPhtAkNa8uLAHdmkumErqE/fmoI0UUwfsjCVhob5ssgHUlYxpK+62qL
S3fmJcEeL3GUX7pkJE0eNDyOsXgo6+rThXVRpvVDzjJ0MzY9zMR/P5/iYFt8I9E9
fUh2/7fFh4G4CKTnXjdODAULQi+PQ8jGhyrVqBE9tF0nom5QOwIDAQABo1MwUTAd
BgNVHQ4EFgQURHvKuMV/uteEa186AHcu8xorcKQwHwYDVR0jBBgwFoAURHvKuMV/
uteEa186AHcu8xorcKQwDwYDVR0TAQH/BAUwAwEB/zANBgkqhkiG9w0BAQsFAAOC
AQEAFxDQ8bEURKSkILDhHUJPZLS/bCzua3DQtEH0POD9r/SQ6XLUnSy+gtC6wVRj
Xz5blpOopyrvyZNmRoALoyV3kb1+AvvEJtCOGoBwEkHtCMQTl/TNRLp0QUtqbd9G
Gk8n0PW0fAFh1TsvBcDeI0BAiQ4AKq/VLn/dwoZpoKS2RVFIp2AzIUFLqxGyLk9V
tmvQCWSXcKD78Ix7BLAXBJxxrcxN+hN+/goc2JEpjbFz3s/1S3BcCeA2oMhADBC7
pzOsOoFWqL1M6mVi7+eMGrgrwvebpNo3d4vLFtVE6gXWmMkcaWI8e91o75wAKKKM
gTE/SBprfrQNleqKnblSTgMYFw==
-----END CERTIFICATE-----
